target datalayout = "e-m:e-p270:32:32-p271:32:32-p272:64:64-i64:64-i128:128-f80:128-n8:16:32:64-S128"
target triple = "x86_64-pc-linux-gnu"

%struct.SDL_DisplayMode = type { i32, i32, i32, i32, float, float, i32, i32, ptr }
%struct.SDL_HDROutputProperties = type { float, float }
%struct.SDL_VideoDisplay = type { i32, ptr, i32, i32, ptr, %struct.SDL_DisplayMode, ptr, i32, i32, float, %struct.SDL_HDROutputProperties, i8, ptr, ptr, i32, ptr }

; Function Attrs: nounwind uwtable
define hidden void @SDL_ResetFullscreenDisplayModes(ptr noundef %0) #0 {
  %2 = alloca ptr, align 8
  %3 = alloca i32, align 4
  store ptr %0, ptr %2, align 8
  call void @llvm.lifetime.start.p0(i64 4, ptr %3) #10
  %4 = load ptr, ptr %2, align 8
  %5 = getelementptr inbounds nuw %struct.SDL_VideoDisplay, ptr %4, i32 0, i32 3
  %6 = load i32, ptr %5, align 4
  store i32 %6, ptr %3, align 4
  br label %7

7:                                                ; preds = %11, %1
  %8 = load i32, ptr %3, align 4
  %9 = add nsw i32 %8, -1
  store i32 %9, ptr %3, align 4
  %10 = icmp ne i32 %8, 0
  br i1 %10, label %11, label %27

11:                                               ; preds = %7
  %12 = load ptr, ptr %2, align 8
  %13 = getelementptr inbounds nuw %struct.SDL_VideoDisplay, ptr %12, i32 0, i32 4
  %14 = load ptr, ptr %13, align 8
  %15 = load i32, ptr %3, align 4
  %16 = sext i32 %15 to i64
  %17 = getelementptr inbounds %struct.SDL_DisplayMode, ptr %14, i64 %16
  %18 = getelementptr inbounds nuw %struct.SDL_DisplayMode, ptr %17, i32 0, i32 8
  %19 = load ptr, ptr %18, align 8
  call void @SDL_free_REAL(ptr noundef %19)
  %20 = load ptr, ptr %2, align 8
  %21 = getelementptr inbounds nuw %struct.SDL_VideoDisplay, ptr %20, i32 0, i32 4
  %22 = load ptr, ptr %21, align 8
  %23 = load i32, ptr %3, align 4
  %24 = sext i32 %23 to i64
  %25 = getelementptr inbounds %struct.SDL_DisplayMode, ptr %22, i64 %24
  %26 = getelementptr inbounds nuw %struct.SDL_DisplayMode, ptr %25, i32 0, i32 8
  store ptr null, ptr %26, align 8
  br label %7, !llvm.loop !19

27:                                               ; preds = %7
  %28 = load ptr, ptr %2, align 8
  %29 = getelementptr inbounds nuw %struct.SDL_VideoDisplay, ptr %28, i32 0, i32 4
  %30 = load ptr, ptr %29, align 8
  call void @SDL_free_REAL(ptr noundef %30)
  %31 = load ptr, ptr %2, align 8
  %32 = getelementptr inbounds nuw %struct.SDL_VideoDisplay, ptr %31, i32 0, i32 4
  store ptr null, ptr %32, align 8
  %33 = load ptr, ptr %2, align 8
  %34 = getelementptr inbounds nuw %struct.SDL_VideoDisplay, ptr %33, i32 0, i32 3
  store i32 0, ptr %34, align 4
  %35 = load ptr, ptr %2, align 8
  %36 = getelementptr inbounds nuw %struct.SDL_VideoDisplay, ptr %35, i32 0, i32 2
  store i32 0, ptr %36, align 8
  %37 = load ptr, ptr %2, align 8
  %38 = getelementptr inbounds nuw %struct.SDL_VideoDisplay, ptr %37, i32 0, i32 5
  %39 = load ptr, ptr %2, align 8
  %40 = getelementptr inbounds nuw %struct.SDL_VideoDisplay, ptr %39, i32 0, i32 6
  store ptr %38, ptr %40, align 8
  call void @llvm.lifetime.end.p0(i64 4, ptr %3) #10
  ret void
}