; Function Attrs: nounwind uwtable
define hidden void @SDL_ResetFullscreenDisplayModes(ptr noundef %0) local_unnamed_addr #0 {
  %2 = getelementptr inbounds nuw i8, ptr %0, i64 20
  %3 = load i32, ptr %2, align 4
  %.not11 = icmp eq i32 %3, 0
  br i1 %.not11, label %._crit_edge, label %.lr.ph

.lr.ph:                                           ; preds = %1
  %4 = getelementptr inbounds nuw i8, ptr %0, i64 24
  %5 = sext i32 %3 to i64
  br label %6

6:                                                ; preds = %.lr.ph, %6
  %indvars.iv = phi i64 [ %5, %.lr.ph ], [ %indvars.iv.next, %6 ]
  %indvars.iv.next = add nsw i64 %indvars.iv, -1
  %7 = load ptr, ptr %4, align 8
  %8 = getelementptr inbounds %struct.SDL_DisplayMode, ptr %7, i64 %indvars.iv.next, i32 8
  %9 = load ptr, ptr %8, align 8
  tail call void @SDL_free_REAL(ptr noundef %9) #19
  %10 = load ptr, ptr %4, align 8
  %11 = getelementptr inbounds %struct.SDL_DisplayMode, ptr %10, i64 %indvars.iv.next, i32 8
  store ptr null, ptr %11, align 8
  %.not = icmp eq i64 %indvars.iv.next, 0
  br i1 %.not, label %._crit_edge, label %6, !llvm.loop !18

._crit_edge:                                      ; preds = %6, %1
  %12 = getelementptr inbounds nuw i8, ptr %0, i64 24
  %13 = load ptr, ptr %12, align 8
  tail call void @SDL_free_REAL(ptr noundef %13) #19
  %14 = getelementptr inbounds nuw i8, ptr %0, i64 16
  %15 = getelementptr inbounds nuw i8, ptr %0, i64 32
  %16 = getelementptr inbounds nuw i8, ptr %0, i64 72
  tail call void @llvm.memset.p0.i64(ptr noundef nonnull align 8 dereferenceable(16) %14, i8 0, i64 16, i1 false)
  store ptr %15, ptr %16, align 8
  ret void
}